target datalayout = "e-m:e-p270:32:32-p271:32:32-p272:64:64-i64:64-i128:128-f80:128-n8:16:32:64-S128"
target triple = "x86_64-unknown-linux-gnu"

%struct.QEMUSGList = type { ptr, i32, i32, i64, ptr, ptr }
%struct.ScatterGatherEntry = type { i64, i64 }

; Function Attrs: nounwind sspstrong uwtable
define dso_local void @qemu_sglist_add(ptr noundef %qsg, i64 noundef %base, i64 noundef %len) #0 {
entry:
  %qsg.addr = alloca ptr, align 8
  %base.addr = alloca i64, align 8
  %len.addr = alloca i64, align 8
  store ptr %qsg, ptr %qsg.addr, align 8
  store i64 %base, ptr %base.addr, align 8
  store i64 %len, ptr %len.addr, align 8
  %0 = load ptr, ptr %qsg.addr, align 8
  %nsg = getelementptr inbounds %struct.QEMUSGList, ptr %0, i32 0, i32 1
  %1 = load i32, ptr %nsg, align 8
  %2 = load ptr, ptr %qsg.addr, align 8
  %nalloc = getelementptr inbounds %struct.QEMUSGList, ptr %2, i32 0, i32 2
  %3 = load i32, ptr %nalloc, align 4
  %cmp = icmp eq i32 %1, %3
  br i1 %cmp, label %if.then, label %if.end

if.then:                                          ; preds = %entry
  %4 = load ptr, ptr %qsg.addr, align 8
  %nalloc1 = getelementptr inbounds %struct.QEMUSGList, ptr %4, i32 0, i32 2
  %5 = load i32, ptr %nalloc1, align 4
  %mul = mul i32 2, %5
  %add = add i32 %mul, 1
  %6 = load ptr, ptr %qsg.addr, align 8
  %nalloc2 = getelementptr inbounds %struct.QEMUSGList, ptr %6, i32 0, i32 2
  store i32 %add, ptr %nalloc2, align 4
  %7 = load ptr, ptr %qsg.addr, align 8
  %sg = getelementptr inbounds %struct.QEMUSGList, ptr %7, i32 0, i32 0
  %8 = load ptr, ptr %sg, align 8
  %9 = load ptr, ptr %qsg.addr, align 8
  %nalloc3 = getelementptr inbounds %struct.QEMUSGList, ptr %9, i32 0, i32 2
  %10 = load i32, ptr %nalloc3, align 4
  %conv = sext i32 %10 to i64
  %call = call ptr @g_realloc_n(ptr noundef %8, i64 noundef %conv, i64 noundef 16)
  %11 = load ptr, ptr %qsg.addr, align 8
  %sg4 = getelementptr inbounds %struct.QEMUSGList, ptr %11, i32 0, i32 0
  store ptr %call, ptr %sg4, align 8
  br label %if.end

if.end:                                           ; preds = %if.then, %entry
  %12 = load i64, ptr %base.addr, align 8
  %13 = load ptr, ptr %qsg.addr, align 8
  %sg5 = getelementptr inbounds %struct.QEMUSGList, ptr %13, i32 0, i32 0
  %14 = load ptr, ptr %sg5, align 8
  %15 = load ptr, ptr %qsg.addr, align 8
  %nsg6 = getelementptr inbounds %struct.QEMUSGList, ptr %15, i32 0, i32 1
  %16 = load i32, ptr %nsg6, align 8
  %idxprom = sext i32 %16 to i64
  %arrayidx = getelementptr %struct.ScatterGatherEntry, ptr %14, i64 %idxprom
  %base7 = getelementptr inbounds %struct.ScatterGatherEntry, ptr %arrayidx, i32 0, i32 0
  store i64 %12, ptr %base7, align 8
  %17 = load i64, ptr %len.addr, align 8
  %18 = load ptr, ptr %qsg.addr, align 8
  %sg8 = getelementptr inbounds %struct.QEMUSGList, ptr %18, i32 0, i32 0
  %19 = load ptr, ptr %sg8, align 8
  %20 = load ptr, ptr %qsg.addr, align 8
  %nsg9 = getelementptr inbounds %struct.QEMUSGList, ptr %20, i32 0, i32 1
  %21 = load i32, ptr %nsg9, align 8
  %idxprom10 = sext i32 %21 to i64
  %arrayidx11 = getelementptr %struct.ScatterGatherEntry, ptr %19, i64 %idxprom10
  %len12 = getelementptr inbounds %struct.ScatterGatherEntry, ptr %arrayidx11, i32 0, i32 1
  store i64 %17, ptr %len12, align 8
  %22 = load i64, ptr %len.addr, align 8
  %23 = load ptr, ptr %qsg.addr, align 8
  %size = getelementptr inbounds %struct.QEMUSGList, ptr %23, i32 0, i32 3
  %24 = load i64, ptr %size, align 8
  %add13 = add i64 %24, %22
  store i64 %add13, ptr %size, align 8
  %25 = load ptr, ptr %qsg.addr, align 8
  %nsg14 = getelementptr inbounds %struct.QEMUSGList, ptr %25, i32 0, i32 1
  %26 = load i32, ptr %nsg14, align 8
  %inc = add i32 %26, 1
  store i32 %inc, ptr %nsg14, align 8
  ret void
}