; Function Attrs: nounwind sspstrong uwtable
define dso_local void @qemu_sglist_add(ptr noundef captures(none) %qsg, i64 noundef %base, i64 noundef %len) local_unnamed_addr #0 {
entry:
  %nsg = getelementptr inbounds nuw i8, ptr %qsg, i64 8
  %0 = load i32, ptr %nsg, align 8
  %nalloc = getelementptr inbounds nuw i8, ptr %qsg, i64 12
  %1 = load i32, ptr %nalloc, align 4
  %cmp = icmp eq i32 %0, %1
  %.pre = load ptr, ptr %qsg, align 8
  br i1 %cmp, label %if.then, label %if.end

if.then:                                          ; preds = %entry
  %mul = shl i32 %0, 1
  %add = or disjoint i32 %mul, 1
  store i32 %add, ptr %nalloc, align 4
  %conv = sext i32 %add to i64
  %call = tail call ptr @g_realloc_n(ptr noundef %.pre, i64 noundef %conv, i64 noundef 16) #10
  store ptr %call, ptr %qsg, align 8
  %.pre14 = load i32, ptr %nsg, align 8
  br label %if.end

if.end:                                           ; preds = %if.then, %entry
  %2 = phi i32 [ %.pre14, %if.then ], [ %0, %entry ]
  %3 = phi ptr [ %call, %if.then ], [ %.pre, %entry ]
  %idxprom = sext i32 %2 to i64
  %arrayidx = getelementptr %struct.ScatterGatherEntry, ptr %3, i64 %idxprom
  store i64 %base, ptr %arrayidx, align 8
  %4 = load ptr, ptr %qsg, align 8
  %5 = load i32, ptr %nsg, align 8
  %idxprom10 = sext i32 %5 to i64
  %len12 = getelementptr %struct.ScatterGatherEntry, ptr %4, i64 %idxprom10, i32 1
  store i64 %len, ptr %len12, align 8
  %size = getelementptr inbounds nuw i8, ptr %qsg, i64 16
  %6 = load i64, ptr %size, align 8
  %add13 = add i64 %6, %len
  store i64 %add13, ptr %size, align 8
  %7 = load i32, ptr %nsg, align 8
  %inc = add i32 %7, 1
  store i32 %inc, ptr %nsg, align 8
  ret void
}